Certificate:
    Data:
        Version: 3 (0x2)
        Serial Number: 13864321418762984940 (0xc067f6dfc1351dec)
    Signature Algorithm: sha256WithRSAEncryption
        Issuer: C=US, ST=Colorado, O=UCCS, OU=CS, CN=ca.myuccs.net/emailAddress=ca@ca.myuccs.edu
        Validity
            Not Before: Sep  7 05:51:10 2017 GMT
            Not After : Sep  7 05:51:10 2018 GMT
        Subject: C=US, ST=Colorado, L=Colorado Springs, O=UCCS, OU=CS, CN=cs591/emailAddress=cs591@ca.myuccs.net
        Subject Public Key Info:
            Public Key Algorithm: rsaEncryption
                Public-Key: (2048 bit)
                Modulus:
                    00:ea:53:8c:11:76:b2:da:1c:e2:26:5c:fc:a1:22:
                    bd:c2:52:f7:fb:33:7c:e6:94:be:dc:4f:b9:ef:6b:
                    37:ea:4c:c6:73:9c:de:e3:22:d4:ba:c5:ff:d3:7a:
                    36:78:83:7e:a4:6a:71:2c:2d:1c:10:ba:c9:af:bd:
                    63:7b:ac:25:39:47:c5:cb:88:54:ef:b6:ff:58:1e:
                    de:e0:7f:29:c1:96:f1:34:e9:94:5b:1c:62:85:70:
                    04:29:90:10:8d:60:de:56:8b:8a:97:9d:7f:31:2f:
                    7f:0e:ba:84:5e:f3:97:ac:2c:57:91:db:11:37:25:
                    df:9e:b3:de:5e:fc:7c:1d:2f:ca:ba:5a:f2:15:0e:
                    ce:f5:83:57:d8:a2:19:9e:f6:5a:3e:e3:24:66:30:
                    54:97:75:10:70:0e:b0:0a:8f:e5:48:e5:00:5d:a0:
                    0f:ae:04:f8:0c:32:4d:d0:af:05:71:84:1e:e1:bd:
                    6f:c2:05:02:94:e4:5b:50:df:92:5d:59:2c:3d:bb:
                    a4:29:ed:91:44:1c:4e:94:17:69:f7:7b:a8:e3:c8:
                    1f:b3:46:ca:78:a8:72:83:b9:c9:08:df:b5:39:d0:
                    09:8a:b7:27:6b:2c:59:03:7c:8b:3e:3a:32:ea:e4:
                    a0:11:08:f8:c4:77:f9:ea:a5:ed:f0:c3:a5:22:10:
                    9c:f7
                Exponent: 65537 (0x10001)
        X509v3 extensions:
            X509v3 Basic Constraints: 
                CA:FALSE
            Netscape Comment: 
                OpenSSL Generated Certificate
            X509v3 Subject Key Identifier: 
                BC:F9:B2:5F:DC:6C:1D:48:DB:DB:74:46:6F:10:23:6E:68:D6:72:DE
            X509v3 Authority Key Identifier: 
                keyid:4D:C7:8C:55:D4:C9:14:96:8C:8C:10:38:D9:AB:C8:12:3B:CE:08:BD

    Signature Algorithm: sha256WithRSAEncryption
         8a:30:0f:3b:88:14:5e:3b:49:31:0a:0b:36:68:a9:63:c3:1e:
         71:8d:80:17:35:fd:a4:20:89:8b:42:b1:b3:73:80:3e:e5:77:
         bc:f7:99:a3:7a:95:4a:11:62:86:5f:10:83:c0:7b:f3:fc:34:
         0d:13:0f:f7:f5:46:a3:c3:f1:9d:51:12:e4:7d:42:ce:e3:fa:
         9d:c9:8b:c0:04:ca:89:e3:04:09:14:a4:70:83:10:a7:c6:17:
         18:95:9f:44:45:d8:99:9b:dc:b2:c1:91:86:a3:8a:64:d5:82:
         e4:c4:07:0d:83:f3:ee:c6:3d:d1:d6:40:04:55:d2:c5:ea:8f:
         56:21:8f:c6:36:f8:17:30:e6:41:81:56:c3:40:da:9c:65:03:
         97:85:90:55:46:07:45:e7:1a:5c:f7:cd:8d:8c:a9:56:38:51:
         6d:40:c8:dd:1e:89:dd:dc:83:77:cf:1c:05:13:90:27:90:c2:
         1e:ea:51:44:c6:f4:42:2e:6e:bd:ce:94:1d:1e:0c:7f:69:ff:
         f6:40:6b:61:ed:e7:91:8c:86:63:eb:a5:5b:a5:40:e5:cd:4f:
         ef:8f:f0:40:05:64:27:96:dc:73:d9:a5:71:c2:29:b0:bf:5b:
         93:af:1b:d3:e0:c3:22:6b:ca:57:a7:73:69:5e:d9:89:77:73:
         24:ee:f4:39
-----BEGIN CERTIFICATE-----
MIID/zCCAuegAwIBAgIJAMBn9t/BNR3sMA0GCSqGSIb3DQEBCwUAMHUxCzAJBgNV
BAYTAlVTMREwDwYDVQQIDAhDb2xvcmFkbzENMAsGA1UECgwEVUNDUzELMAkGA1UE
CwwCQ1MxFjAUBgNVBAMMDWNhLm15dWNjcy5uZXQxHzAdBgkqhkiG9w0BCQEWEGNh
QGNhLm15dWNjcy5lZHUwHhcNMTcwOTA3MDU1MTEwWhcNMTgwOTA3MDU1MTEwWjCB
izELMAkGA1UEBhMCVVMxETAPBgNVBAgMCENvbG9yYWRvMRkwFwYDVQQHDBBDb2xv
cmFkbyBTcHJpbmdzMQ0wCwYDVQQKDARVQ0NTMQswCQYDVQQLDAJDUzEOMAwGA1UE
AwwFY3M1OTExIjAgBgkqhkiG9w0BCQEWE2NzNTkxQGNhLm15dWNjcy5uZXQwggEi
MA0GCSqGSIb3DQEBAQUAA4IBDwAwggEKAoIBAQDqU4wRdrLaHOImXPyhIr3CUvf7
M3zmlL7cT7nvazfqTMZznN7jItS6xf/TejZ4g36kanEsLRwQusmvvWN7rCU5R8XL
iFTvtv9YHt7gfynBlvE06ZRbHGKFcAQpkBCNYN5Wi4qXnX8xL38OuoRe85esLFeR
2xE3Jd+es95e/HwdL8q6WvIVDs71g1fYohme9lo+4yRmMFSXdRBwDrAKj+VI5QBd
oA+uBPgMMk3QrwVxhB7hvW/CBQKU5FtQ35JdWSw9u6Qp7ZFEHE6UF2n3e6jjyB+z
Rsp4qHKDuckI37U50AmKtydrLFkDfIs+OjLq5KARCPjEd/nqpe3ww6UiEJz3AgMB
AAGjezB5MAkGA1UdEwQCMAAwLAYJYIZIAYb4QgENBB8WHU9wZW5TU0wgR2VuZXJh
dGVkIENlcnRpZmljYXRlMB0GA1UdDgQWBBS8+bJf3GwdSNvbdEZvECNuaNZy3jAf
BgNVHSMEGDAWgBRNx4xV1MkUloyMEDjZq8gSO84IvTANBgkqhkiG9w0BAQsFAAOC
AQEAijAPO4gUXjtJMQoLNmipY8MecY2AFzX9pCCJi0Kxs3OAPuV3vPeZo3qVShFi
hl8Qg8B78/w0DRMP9/VGo8PxnVES5H1CzuP6ncmLwATKieMECRSkcIMQp8YXGJWf
REXYmZvcssGRhqOKZNWC5MQHDYPz7sY90dZABFXSxeqPViGPxjb4FzDmQYFWw0Da
nGUDl4WQVUYHRecaXPfNjYypVjhRbUDI3R6J3dyDd88cBROQJ5DCHupRRMb0Qi5u
vc6UHR4Mf2n/9kBrYe3nkYyGY+ulW6VA5c1P74/wQAVkJ5bcc9mlccIpsL9bk68b
0+DDImvKV6dzaV7ZiXdzJO70OQ==
-----END CERTIFICATE-----
